(dp0
S'consumer_secret'
p1
S'mavRaSlnccRNJFYQtSZvp8y1mqj77r4cb8CA2XwteGcLbqOBvi'
p2
sS'access_key'
p3
S'2585122411-CbNjeV5aydqfBzgZcWazuG0TctE6dmfrRY6ISeg'
p4
sS'consumer_key'
p5
S'Y8k2xCtglBTyTnIpigNfb2A6p'
p6
sS'access_secret'
p7
S'qaVRSc5wjOV2HGtV3yghcbH9V0iQDTAIsiXTVqdFqsBPq'
p8
s.